target datalayout = "e-m:e-p270:32:32-p271:32:32-p272:64:64-i64:64-i128:128-f80:128-n8:16:32:64-S128"
target triple = "x86_64-pc-linux-gnu"

%"class.llvm::PseudoSourceValue" = type { ptr, i32, i32 }
%"class.llvm::FixedStackPseudoSourceValue" = type <{ %"class.llvm::PseudoSourceValue", i32, [4 x i8] }>
%"class.llvm::MachineFrameInfo" = type { %"struct.llvm::Align", i8, i8, %"class.std::vector.57", i32, i8, i8, i8, i8, i8, i64, i64, %"struct.llvm::Align", i8, i8, i32, i32, i64, i32, %"class.std::vector.62", i8, %"class.llvm::SmallVector.67", i64, %"struct.llvm::Align", i8, i8, i8, i8, i8, i8, ptr, ptr, i64 }
%"class.std::vector.57" = type { %"struct.std::_Vector_base.58" }
%"struct.std::_Vector_base.58" = type { %"struct.std::_Vector_base<llvm::MachineFrameInfo::StackObject, std::allocator<llvm::MachineFrameInfo::StackObject>>::_Vector_impl" }
%"struct.std::_Vector_base<llvm::MachineFrameInfo::StackObject, std::allocator<llvm::MachineFrameInfo::StackObject>>::_Vector_impl" = type { %"struct.std::_Vector_base<llvm::MachineFrameInfo::StackObject, std::allocator<llvm::MachineFrameInfo::StackObject>>::_Vector_impl_data" }
%"struct.std::_Vector_base<llvm::MachineFrameInfo::StackObject, std::allocator<llvm::MachineFrameInfo::StackObject>>::_Vector_impl_data" = type { ptr, ptr, ptr }
%"class.std::vector.62" = type { %"struct.std::_Vector_base.63" }
%"struct.std::_Vector_base.63" = type { %"struct.std::_Vector_base<llvm::CalleeSavedInfo, std::allocator<llvm::CalleeSavedInfo>>::_Vector_impl" }
%"struct.std::_Vector_base<llvm::CalleeSavedInfo, std::allocator<llvm::CalleeSavedInfo>>::_Vector_impl" = type { %"struct.std::_Vector_base<llvm::CalleeSavedInfo, std::allocator<llvm::CalleeSavedInfo>>::_Vector_impl_data" }
%"struct.std::_Vector_base<llvm::CalleeSavedInfo, std::allocator<llvm::CalleeSavedInfo>>::_Vector_impl_data" = type { ptr, ptr, ptr }
%"class.llvm::SmallVector.67" = type { %"class.llvm::SmallVectorImpl.68", %"struct.llvm::SmallVectorStorage.71" }
%"class.llvm::SmallVectorImpl.68" = type { %"class.llvm::SmallVectorTemplateBase.69" }
%"class.llvm::SmallVectorTemplateBase.69" = type { %"class.llvm::SmallVectorTemplateCommon.70" }
%"class.llvm::SmallVectorTemplateCommon.70" = type { %"class.llvm::SmallVectorBase.4" }
%"class.llvm::SmallVectorBase.4" = type { ptr, i32, i32 }
%"struct.llvm::SmallVectorStorage.71" = type { [512 x i8] }
%"struct.llvm::Align" = type { i8 }
%"struct.llvm::MachineFrameInfo::StackObject" = type <{ i64, i64, %"struct.llvm::Align", i8, i8, i8, i8, [3 x i8], ptr, i8, i8, i8, i8, i8, [3 x i8] }>

; Function Attrs: mustprogress nounwind uwtable
define linkonce_odr hidden noundef nonnull align 8 dereferenceable(37) ptr @_ZNKSt6vectorIN4llvm16MachineFrameInfo11StackObjectESaIS2_EEixEm(ptr noundef nonnull align 8 dereferenceable(24) %0, i64 noundef %1) #0 comdat align 2 {
  %3 = alloca ptr, align 8
  %4 = alloca i64, align 8
  store ptr %0, ptr %3, align 8
  store i64 %1, ptr %4, align 8
  %5 = load ptr, ptr %3, align 8
  %6 = getelementptr inbounds nuw %"struct.std::_Vector_base.58", ptr %5, i32 0, i32 0
  %7 = getelementptr inbounds nuw %"struct.std::_Vector_base<llvm::MachineFrameInfo::StackObject, std::allocator<llvm::MachineFrameInfo::StackObject>>::_Vector_impl_data", ptr %6, i32 0, i32 0
  %8 = load ptr, ptr %7, align 8
  %9 = load i64, ptr %4, align 8
  %10 = getelementptr inbounds %"struct.llvm::MachineFrameInfo::StackObject", ptr %8, i64 %9
  ret ptr %10
}

; Function Attrs: mustprogress nounwind uwtable
define linkonce_odr hidden noundef zeroext i1 @_ZNK4llvm16MachineFrameInfo22isImmutableObjectIndexEi(ptr noundef nonnull align 8 dereferenceable(696) %0, i32 noundef %1) #0 comdat align 2 {
  %3 = alloca i1, align 1
  %4 = alloca ptr, align 8
  %5 = alloca i32, align 4
  store ptr %0, ptr %4, align 8
  store i32 %1, ptr %5, align 4
  %6 = load ptr, ptr %4, align 8
  %7 = getelementptr inbounds nuw %"class.llvm::MachineFrameInfo", ptr %6, i32 0, i32 29
  %8 = load i8, ptr %7, align 2
  %9 = trunc i8 %8 to i1
  br i1 %9, label %10, label %11

10:                                               ; preds = %2
  store i1 false, ptr %3, align 1
  br label %22

11:                                               ; preds = %2
  %12 = getelementptr inbounds nuw %"class.llvm::MachineFrameInfo", ptr %6, i32 0, i32 3
  %13 = load i32, ptr %5, align 4
  %14 = getelementptr inbounds nuw %"class.llvm::MachineFrameInfo", ptr %6, i32 0, i32 4
  %15 = load i32, ptr %14, align 8
  %16 = add i32 %13, %15
  %17 = zext i32 %16 to i64
  %18 = call noundef nonnull align 8 dereferenceable(37) ptr @_ZNKSt6vectorIN4llvm16MachineFrameInfo11StackObjectESaIS2_EEixEm(ptr noundef nonnull align 8 dereferenceable(24) %12, i64 noundef %17) #8
  %19 = getelementptr inbounds nuw %"struct.llvm::MachineFrameInfo::StackObject", ptr %18, i32 0, i32 3
  %20 = load i8, ptr %19, align 1
  %21 = trunc i8 %20 to i1
  store i1 %21, ptr %3, align 1
  br label %22

22:                                               ; preds = %11, %10
  %23 = load i1, ptr %3, align 1
  ret i1 %23
}

; Function Attrs: mustprogress nounwind uwtable
define dso_local noundef zeroext i1 @_ZNK4llvm27FixedStackPseudoSourceValue10isConstantEPKNS_16MachineFrameInfoE(ptr noundef nonnull align 8 dereferenceable(20) %0, ptr noundef %1) unnamed_addr #0 align 2 {
  %3 = alloca ptr, align 8
  %4 = alloca ptr, align 8
  store ptr %0, ptr %3, align 8
  store ptr %1, ptr %4, align 8
  %5 = load ptr, ptr %3, align 8
  %6 = load ptr, ptr %4, align 8
  %7 = icmp ne ptr %6, null
  br i1 %7, label %8, label %13

8:                                                ; preds = %2
  %9 = load ptr, ptr %4, align 8
  %10 = getelementptr inbounds nuw %"class.llvm::FixedStackPseudoSourceValue", ptr %5, i32 0, i32 1
  %11 = load i32, ptr %10, align 8
  %12 = call noundef zeroext i1 @_ZNK4llvm16MachineFrameInfo22isImmutableObjectIndexEi(ptr noundef nonnull align 8 dereferenceable(696) %9, i32 noundef %11)
  br label %13

13:                                               ; preds = %8, %2
  %14 = phi i1 [ false, %2 ], [ %12, %8 ]
  ret i1 %14
}