; Function Attrs: mustprogress nofree norecurse nosync nounwind willreturn memory(read, inaccessiblemem: none) uwtable
define dso_local noundef zeroext i1 @_ZNK4llvm27FixedStackPseudoSourceValue10isConstantEPKNS_16MachineFrameInfoE(ptr nocapture noundef nonnull readonly align 8 dereferenceable(20) %0, ptr noundef readonly %1) unnamed_addr #5 align 2 {
  %.not = icmp eq ptr %1, null
  br i1 %.not, label %_ZNK4llvm16MachineFrameInfo22isImmutableObjectIndexEi.exit, label %3

3:                                                ; preds = %2
  %4 = getelementptr inbounds nuw i8, ptr %1, i64 670
  %5 = load i8, ptr %4, align 2
  %6 = trunc i8 %5 to i1
  br i1 %6, label %_ZNK4llvm16MachineFrameInfo22isImmutableObjectIndexEi.exit, label %7

7:                                                ; preds = %3
  %8 = getelementptr inbounds nuw i8, ptr %0, i64 16
  %9 = load i32, ptr %8, align 8
  %10 = getelementptr inbounds nuw i8, ptr %1, i64 8
  %11 = getelementptr inbounds nuw i8, ptr %1, i64 32
  %12 = load i32, ptr %11, align 8
  %13 = add i32 %12, %9
  %14 = zext i32 %13 to i64
  %15 = load ptr, ptr %10, align 8
  %16 = getelementptr inbounds %"struct.llvm::MachineFrameInfo::StackObject", ptr %15, i64 %14, i32 3
  %17 = load i8, ptr %16, align 1
  %18 = trunc i8 %17 to i1
  br label %_ZNK4llvm16MachineFrameInfo22isImmutableObjectIndexEi.exit

_ZNK4llvm16MachineFrameInfo22isImmutableObjectIndexEi.exit: ; preds = %7, %3, %2
  %19 = phi i1 [ false, %2 ], [ %18, %7 ], [ false, %3 ]
  ret i1 %19
}